; Function Attrs: nounwind sspstrong uwtable
define hidden i64 @rb_get_path_check_to_string(i64 noundef %0) local_unnamed_addr #0 {
  %2 = alloca i64, align 8
  call void @llvm.lifetime.start.p0(i64 8, ptr nonnull %2) #22
  %3 = icmp eq i64 %0, 0
  %4 = and i64 %0, 7
  %5 = icmp ne i64 %4, 0
  %6 = or i1 %3, %5
  br i1 %6, label %rbimpl_RB_TYPE_P_fastpath.exit.thread, label %rbimpl_RB_TYPE_P_fastpath.exit

rbimpl_RB_TYPE_P_fastpath.exit:                   ; preds = %1
  %7 = inttoptr i64 %0 to ptr
  %8 = load i64, ptr %7, align 8, !tbaa !7
  %9 = and i64 %8, 31
  %10 = icmp eq i64 %9, 5
  br i1 %10, label %15, label %rbimpl_RB_TYPE_P_fastpath.exit.thread

rbimpl_RB_TYPE_P_fastpath.exit.thread:            ; preds = %1, %rbimpl_RB_TYPE_P_fastpath.exit
  %.pr.i = load i64, ptr @rb_get_path_check_to_string.rbimpl_id, align 8, !tbaa !12
  %.not4.i = icmp eq i64 %.pr.i, 0
  br i1 %.not4.i, label %.lr.ph.i, label %rbimpl_intern_const.exit

.lr.ph.i:                                         ; preds = %rbimpl_RB_TYPE_P_fastpath.exit.thread, %.lr.ph.i
  %11 = tail call i64 @rb_intern2(ptr noundef nonnull @.str, i64 noundef 7) #22
  store i64 %11, ptr @rb_get_path_check_to_string.rbimpl_id, align 8, !tbaa !12
  %.not.i = icmp eq i64 %11, 0
  br i1 %.not.i, label %.lr.ph.i, label %rbimpl_intern_const.exit, !llvm.loop !13

rbimpl_intern_const.exit:                         ; preds = %.lr.ph.i, %rbimpl_RB_TYPE_P_fastpath.exit.thread
  %.lcssa.i = phi i64 [ %.pr.i, %rbimpl_RB_TYPE_P_fastpath.exit.thread ], [ %11, %.lr.ph.i ]
  %12 = tail call i64 @rb_check_funcall_default(i64 noundef %0, i64 noundef %.lcssa.i, i32 noundef 0, ptr noundef null, i64 noundef %0) #22
  store i64 %12, ptr %2, align 8, !tbaa !12
  %13 = call i64 @rb_string_value(ptr noundef nonnull %2) #22
  %14 = load i64, ptr %2, align 8, !tbaa !12
  br label %15

15:                                               ; preds = %rbimpl_RB_TYPE_P_fastpath.exit, %rbimpl_intern_const.exit
  %.0 = phi i64 [ %14, %rbimpl_intern_const.exit ], [ %0, %rbimpl_RB_TYPE_P_fastpath.exit ]
  call void @llvm.lifetime.end.p0(i64 8, ptr nonnull %2) #22
  ret i64 %.0
}